(dp1
S'!green'
p2
(dp3
S'limit'
p4
I4
sS'argc'
p5
I1
sS'return'
p6
S'command'
p7
sS'last_used'
p8
I0
ssS'!red'
p9
(dp10
g4
I5
sg5
I1
sg6
g7
sg8
I0
ssS'!modcheck'
p11
(dp12
g8
I0
sg5
I1
sg6
S'<user> qualifies for Mod-limited commands!'
p13
sg4
I0
sS'userbadge'
p14
S'moderator'
p15
ssS'!xmas'
p16
(dp17
g4
I10
sg5
I0
sg6
g7
sg8
I0
ssS'!subcheck'
p18
(dp19
g8
I0
sg5
I1
sg6
S'<user>, you qualify for Subscriber-limited commands!'
p20
sg4
I0
sg14
S'subscriber'
p21
ssS'!broadcastercheck'
p22
(dp23
g8
I0
sg5
I1
sg6
S'Yes, <user> is indeed the broadcaster!'
p24
sg4
I0
sg14
S'broadcaster'
p25
ssS'!hello'
p26
(dp27
g4
I10
sg6
S'Hello <user>!'
p28
sg8
F1493115120.5019121
ssS'!blue'
p29
(dp30
g4
I0
sg5
I1
sg6
S'But there is no blue light, <user>!'
p31
sg8
I0
ssS'!discord'
p32
(dp33
g4
I10
sg5
I0
sg6
S"<user>, you can find Amp's Discord server at: https://discordapp.com/invite/7Z4muuK"
p34
sg8
I0
ssS'!addcom'
p35
(dp36
g8
I0
sg6
g7
sg4
I10
sS'userbadge'
p37
S'broadcaster'
p38
ssS'!cmdlist'
p39
(dp40
g4
I10
sg6
g7
sg8
I0
ss.