(dp1
S'!green'
p2
(dp3
S'return'
p4
S'command'
p5
sS'argc'
p6
I1
sS'limit'
p7
I4
sS'last_used'
p8
I0
ssS'!red'
p9
(dp10
g4
g5
sg6
I1
sg7
I5
sg8
I0
ssS'!modcheck'
p11
(dp12
g4
S'<user> qualifies for Mod-limited commands!'
p13
sg8
I0
sg6
I1
sg7
I0
sS'userbadge'
p14
S'moderator'
p15
ssS'!xmas'
p16
(dp17
g4
g5
sg6
I0
sg7
I10
sg8
I0
ssS'!subcheck'
p18
(dp19
g4
S'<user>, you qualify for Subscriber-limited commands!'
p20
sg8
I0
sg6
I1
sg7
I0
sg14
S'subscriber'
p21
ssS'!broadcastercheck'
p22
(dp23
g4
S'Yes, <user> is indeed the broadcaster!'
p24
sg8
I0
sg6
I1
sg7
I0
sg14
S'broadcaster'
p25
ssS'!hello'
p26
(dp27
g4
S'Hello <user>!'
p28
sg7
I10
sg8
F1493111796.2950289
ssS'!lol'
p29
(dp30
S'last_used'
p31
F1493111798.8657529
sS'limit'
p32
I10
sS'return'
p33
S'what'
p34
sS'userbadge'
p35
S'moderator'
p36
ssS'!blue'
p37
(dp38
g4
S'But there is no blue light, <user>!'
p39
sg6
I1
sg7
I0
sg8
I0
ssS'!discord'
p40
(dp41
g4
S"<user>, you can find Amp's Discord server at: https://discordapp.com/invite/7Z4muuK"
p42
sg6
I0
sg7
I10
sg8
I0
ssS'!bigboss'
p43
(dp44
g4
S'Just remember! <user> is the boss around here!'
p45
sg8
I0
sg7
I10
sg14
g25
ssS'!tingle'
p46
(dp47
S'return'
p48
S'my dingle'
p49
sg31
I0
sS'limit'
p50
I10
sS'userbadge'
p51
S'moderator'
p52
ssS'!addcom'
p53
(dp54
g4
g5
sg7
I10
sg8
I0
ssS'!cmdlist'
p55
(dp56
g4
g5
sg7
I10
sg8
I0
ss.